target datalayout = "e-m:e-p270:32:32-p271:32:32-p272:64:64-i64:64-i128:128-f80:128-n8:16:32:64-S128"
target triple = "x86_64-pc-linux-gnu"

%"class.QMetaObject::Connection" = type { ptr }

@mainApp = external global ptr, align 8
@.str.29 = private unnamed_addr constant [28 x i8] c"2framesSelected(QList<int>)\00", align 1
@.str.30 = private unnamed_addr constant [34 x i8] c"1selectedFrameChanged(QList<int>)\00", align 1

; Function Attrs: mustprogress uwtable
define void @_ZN13MainStatusBar14appInitializedEv(ptr noundef nonnull align 8 dereferenceable(512) %0) #0 align 2 {
  %2 = alloca ptr, align 8
  %3 = alloca %"class.QMetaObject::Connection", align 8
  store ptr %0, ptr %2, align 8
  %4 = load ptr, ptr %2, align 8
  call void @_ZN13MainStatusBar14setProfileNameEv(ptr noundef nonnull align 8 dereferenceable(512) %4)
  %5 = load ptr, ptr @mainApp, align 8
  %6 = call noundef ptr @_ZN15MainApplication10mainWindowEv(ptr noundef nonnull align 8 dereferenceable(216) %5)
  call void @_ZN7QObject7connectEPKS_PKcS1_S3_N2Qt14ConnectionTypeE(ptr dead_on_unwind writable sret(%"class.QMetaObject::Connection") align 8 %3, ptr noundef %6, ptr noundef @.str.29, ptr noundef %4, ptr noundef @.str.30, i32 noundef 0)
  call void @_ZN11QMetaObject10ConnectionD1Ev(ptr noundef nonnull align 8 dereferenceable(8) %3) #11
  ret void
}