; Function Attrs: mustprogress uwtable
define void @_ZN13MainStatusBar14appInitializedEv(ptr noundef nonnull align 8 dereferenceable(512) %0) #0 align 2 {
  %2 = alloca %"class.QMetaObject::Connection", align 8
  tail call void @_ZN13MainStatusBar14setProfileNameEv(ptr noundef nonnull align 8 dereferenceable(512) %0)
  %3 = load ptr, ptr @mainApp, align 8
  %4 = tail call noundef ptr @_ZN15MainApplication10mainWindowEv(ptr noundef nonnull align 8 dereferenceable(216) %3)
  call void @_ZN7QObject7connectEPKS_PKcS1_S3_N2Qt14ConnectionTypeE(ptr dead_on_unwind nonnull writable sret(%"class.QMetaObject::Connection") align 8 %2, ptr noundef %4, ptr noundef nonnull @.str.29, ptr noundef nonnull %0, ptr noundef nonnull @.str.30, i32 noundef 0)
  call void @_ZN11QMetaObject10ConnectionD1Ev(ptr noundef nonnull align 8 dereferenceable(8) %2) #12
  ret void
}